; Function Attrs: mustprogress nofree norecurse nosync nounwind memory(readwrite, inaccessiblemem: none) uwtable
define hidden void @_ZN5zxing8BitArray27initAllNextSetsFromCountersESt6vectorIiSaIiEE(ptr noundef nonnull readonly align 8 captures(none) dereferenceable(88) %0, ptr noundef readonly captures(none) %1) local_unnamed_addr #6 align 2 {
  %3 = getelementptr inbounds nuw i8, ptr %1, i64 8
  %4 = load ptr, ptr %3, align 8, !tbaa !29
  %5 = load ptr, ptr %1, align 8, !tbaa !24
  %6 = ptrtoint ptr %4 to i64
  %7 = ptrtoint ptr %5 to i64
  %8 = sub i64 %6, %7
  %9 = lshr exact i64 %8, 2
  %10 = trunc i64 %9 to i32
  %11 = getelementptr inbounds nuw i8, ptr %0, i64 56
  %12 = load ptr, ptr %11, align 8, !tbaa !23
  %13 = getelementptr inbounds nuw i8, ptr %12, i64 16
  %14 = load ptr, ptr %13, align 8, !tbaa !24
  %15 = getelementptr inbounds nuw i8, ptr %0, i64 80
  %16 = load ptr, ptr %15, align 8, !tbaa !23
  %17 = getelementptr inbounds nuw i8, ptr %16, i64 16
  %18 = load ptr, ptr %17, align 8, !tbaa !24
  %19 = icmp sgt i32 %10, 0
  br i1 %19, label %.lr.ph51.preheader, label %._crit_edge

.lr.ph51.preheader:                               ; preds = %2
  %20 = getelementptr inbounds nuw i8, ptr %0, i64 32
  %21 = load ptr, ptr %20, align 8, !tbaa !17
  %22 = getelementptr inbounds nuw i8, ptr %21, i64 16
  %23 = load ptr, ptr %22, align 8, !tbaa !18
  %24 = load i8, ptr %23, align 1, !tbaa !38, !range !40, !noundef !41
  %25 = trunc nuw i8 %24 to i1
  %wide.trip.count61 = and i64 %9, 2147483647
  br label %.lr.ph51

.lr.ph51:                                         ; preds = %.lr.ph51.preheader, %.loopexit
  %indvars.iv59 = phi i64 [ 0, %.lr.ph51.preheader ], [ %indvars.iv.next60, %.loopexit ]
  %.03750 = phi i1 [ %25, %.lr.ph51.preheader ], [ %40, %.loopexit ]
  %.03948 = phi i32 [ 0, %.lr.ph51.preheader ], [ %28, %.loopexit ]
  %.04046 = phi i32 [ 0, %.lr.ph51.preheader ], [ %41, %.loopexit ]
  %26 = getelementptr inbounds nuw i32, ptr %5, i64 %indvars.iv59
  %27 = load i32, ptr %26, align 4, !tbaa !28
  %28 = add nsw i32 %27, %.03948
  %29 = icmp sgt i32 %27, 0
  br i1 %.03750, label %.preheader, label %.preheader41

.preheader41:                                     ; preds = %.lr.ph51
  br i1 %29, label %.lr.ph.preheader, label %.loopexit

.lr.ph.preheader:                                 ; preds = %.preheader41
  %30 = sext i32 %.04046 to i64
  %wide.trip.count = zext nneg i32 %27 to i64
  br label %.lr.ph

.preheader:                                       ; preds = %.lr.ph51
  br i1 %29, label %.lr.ph45.preheader, label %.loopexit

.lr.ph45.preheader:                               ; preds = %.preheader
  %31 = sext i32 %.04046 to i64
  %wide.trip.count57 = zext nneg i32 %27 to i64
  br label %.lr.ph45

.lr.ph45:                                         ; preds = %.lr.ph45.preheader, %.lr.ph45
  %indvars.iv54 = phi i64 [ 0, %.lr.ph45.preheader ], [ %indvars.iv.next55, %.lr.ph45 ]
  %32 = add nsw i64 %indvars.iv54, %31
  %33 = getelementptr inbounds i32, ptr %14, i64 %32
  %34 = trunc nsw i64 %32 to i32
  store i32 %34, ptr %33, align 4, !tbaa !28
  %35 = getelementptr inbounds i32, ptr %18, i64 %32
  store i32 %28, ptr %35, align 4, !tbaa !28
  %indvars.iv.next55 = add nuw nsw i64 %indvars.iv54, 1
  %exitcond58.not = icmp eq i64 %indvars.iv.next55, %wide.trip.count57
  br i1 %exitcond58.not, label %.loopexit, label %.lr.ph45, !llvm.loop !45

.lr.ph:                                           ; preds = %.lr.ph.preheader, %.lr.ph
  %indvars.iv = phi i64 [ 0, %.lr.ph.preheader ], [ %indvars.iv.next, %.lr.ph ]
  %36 = add nsw i64 %indvars.iv, %30
  %37 = getelementptr inbounds i32, ptr %14, i64 %36
  store i32 %28, ptr %37, align 4, !tbaa !28
  %38 = getelementptr inbounds i32, ptr %18, i64 %36
  %39 = trunc nsw i64 %36 to i32
  store i32 %39, ptr %38, align 4, !tbaa !28
  %indvars.iv.next = add nuw nsw i64 %indvars.iv, 1
  %exitcond.not = icmp eq i64 %indvars.iv.next, %wide.trip.count
  br i1 %exitcond.not, label %.loopexit, label %.lr.ph, !llvm.loop !46

.loopexit:                                        ; preds = %.lr.ph, %.lr.ph45, %.preheader41, %.preheader
  %40 = xor i1 %.03750, true
  %41 = add nsw i32 %27, %.04046
  %indvars.iv.next60 = add nuw nsw i64 %indvars.iv59, 1
  %exitcond62.not = icmp eq i64 %indvars.iv.next60, %wide.trip.count61
  br i1 %exitcond62.not, label %._crit_edge, label %.lr.ph51, !llvm.loop !47

._crit_edge:                                      ; preds = %.loopexit, %2
  ret void
}